target datalayout = "e-m:e-p270:32:32-p271:32:32-p272:64:64-i64:64-i128:128-f80:128-n8:16:32:64-S128"
target triple = "x86_64-pc-linux-gnu"

%struct.Abc_Frame_t_ = type { ptr, ptr, ptr, ptr, ptr, ptr, ptr, ptr, ptr, ptr, i32, i32, i32, i32, i32, ptr, float, float, i32, i32, ptr, ptr, ptr, double, double, ptr, ptr, ptr, ptr, ptr, ptr, ptr, ptr, ptr, ptr, ptr, ptr, float, ptr, i32, ptr, ptr, ptr, ptr, ptr, i32, i32, i32, i32, i32, i32, ptr, ptr, ptr, ptr, ptr, ptr, i32, i32, ptr, ptr, ptr, ptr, ptr, ptr, ptr, ptr, ptr, ptr, ptr, ptr, ptr, ptr, ptr, ptr, ptr, ptr, ptr, ptr, ptr, ptr, ptr, ptr, ptr, ptr, ptr, ptr, ptr, ptr }
%struct.Vec_Ptr_t_ = type { i32, i32, ptr }
%struct.Vec_Int_t_ = type { i32, i32, ptr }
%struct.Scl_Con_t_ = type { ptr, ptr, ptr, i32, i32, i32, i32, i32, %struct.Vec_Ptr_t_, %struct.Vec_Ptr_t_, %struct.Vec_Int_t_, %struct.Vec_Int_t_, %struct.Vec_Int_t_, %struct.Vec_Int_t_, %struct.Vec_Int_t_, ptr, ptr }

@globalUtilOptind = external global i32, align 4
@.str.39 = private unnamed_addr constant [4 x i8] c"yes\00", align 1
@.str.40 = private unnamed_addr constant [3 x i8] c"no\00", align 1
@.str.79 = private unnamed_addr constant [38 x i8] c"\09-h     : prints the command summary\0A\00", align 1
@.str.80 = private unnamed_addr constant [38 x i8] c"\09<file> : the name of a file to read\0A\00", align 1
@.str.102 = private unnamed_addr constant [3 x i8] c"vh\00", align 1
@.str.166 = private unnamed_addr constant [62 x i8] c"\09-v     : toggle printing verbose information [default = %s]\0A\00", align 1
@.str.186 = private unnamed_addr constant [59 x i8] c"Scl_CommandWriteConstr(): There is no constraint manager.\0A\00", align 1
@.str.187 = private unnamed_addr constant [12 x i8] c"_out.constr\00", align 1
@.str.188 = private unnamed_addr constant [55 x i8] c"Output file name should be given on the command line.\0A\00", align 1
@.str.189 = private unnamed_addr constant [7 x i8] c"constr\00", align 1
@.str.190 = private unnamed_addr constant [63 x i8] c"Scl_CommandWriteConstr(): Unrecognized output file extension.\0A\00", align 1
@.str.191 = private unnamed_addr constant [34 x i8] c"usage: write_constr [-vh] <file>\0A\00", align 1
@.str.192 = private unnamed_addr constant [57 x i8] c"\09         writes current timing constraints into a file\0A\00", align 1

; Function Attrs: inlinehint nounwind uwtable
define internal ptr @Scl_ConGetMan(ptr noundef %0) #1 {
  %2 = alloca ptr, align 8
  store ptr %0, ptr %2, align 8, !tbaa !3
  %3 = load ptr, ptr %2, align 8, !tbaa !3
  %4 = getelementptr inbounds nuw %struct.Abc_Frame_t_, ptr %3, i32 0, i32 35
  %5 = load ptr, ptr %4, align 8, !tbaa !8
  ret ptr %5
}

; Function Attrs: nounwind uwtable
define internal i32 @Scl_CommandWriteConstr(ptr noundef %0, i32 noundef %1, ptr noundef %2) #0 {
  %4 = alloca i32, align 4
  %5 = alloca ptr, align 8
  %6 = alloca i32, align 4
  %7 = alloca ptr, align 8
  %8 = alloca ptr, align 8
  %9 = alloca ptr, align 8
  %10 = alloca i32, align 4
  %11 = alloca i32, align 4
  %12 = alloca i32, align 4
  store ptr %0, ptr %5, align 8, !tbaa !3
  store i32 %1, ptr %6, align 4, !tbaa !29
  store ptr %2, ptr %7, align 8, !tbaa !50
  call void @llvm.lifetime.start.p0(i64 8, ptr %8) #12
  %13 = load ptr, ptr %5, align 8, !tbaa !3
  %14 = call ptr @Scl_ConGetMan(ptr noundef %13)
  store ptr %14, ptr %8, align 8, !tbaa !118
  call void @llvm.lifetime.start.p0(i64 8, ptr %9) #12
  store ptr null, ptr %9, align 8, !tbaa !56
  call void @llvm.lifetime.start.p0(i64 4, ptr %10) #12
  call void @llvm.lifetime.start.p0(i64 4, ptr %11) #12
  store i32 0, ptr %11, align 4, !tbaa !29
  call void (...) @Extra_UtilGetoptReset()
  br label %15

15:                                               ; preds = %27, %3
  %16 = load i32, ptr %6, align 4, !tbaa !29
  %17 = load ptr, ptr %7, align 8, !tbaa !50
  %18 = call i32 @Extra_UtilGetopt(i32 noundef %16, ptr noundef %17, ptr noundef @.str.102)
  store i32 %18, ptr %10, align 4, !tbaa !29
  %19 = icmp ne i32 %18, -1
  br i1 %19, label %20, label %28

20:                                               ; preds = %15
  %21 = load i32, ptr %10, align 4, !tbaa !29
  switch i32 %21, label %26 [
    i32 118, label %22
    i32 104, label %25
  ]

22:                                               ; preds = %20
  %23 = load i32, ptr %11, align 4, !tbaa !29
  %24 = xor i32 %23, 1
  store i32 %24, ptr %11, align 4, !tbaa !29
  br label %27

25:                                               ; preds = %20
  br label %69

26:                                               ; preds = %20
  br label %69

27:                                               ; preds = %22
  br label %15, !llvm.loop !120

28:                                               ; preds = %15
  %29 = load ptr, ptr %8, align 8, !tbaa !118
  %30 = icmp eq ptr %29, null
  br i1 %30, label %31, label %32

31:                                               ; preds = %28
  call void (i32, ptr, ...) @Abc_Print(i32 noundef 1, ptr noundef @.str.186)
  store i32 0, ptr %4, align 4
  store i32 1, ptr %12, align 4
  br label %93

32:                                               ; preds = %28
  %33 = load i32, ptr %6, align 4, !tbaa !29
  %34 = load i32, ptr @globalUtilOptind, align 4, !tbaa !29
  %35 = add nsw i32 %34, 1
  %36 = icmp eq i32 %33, %35
  br i1 %36, label %37, label %43

37:                                               ; preds = %32
  %38 = load ptr, ptr %7, align 8, !tbaa !50
  %39 = load i32, ptr @globalUtilOptind, align 4, !tbaa !29
  %40 = sext i32 %39 to i64
  %41 = getelementptr inbounds ptr, ptr %38, i64 %40
  %42 = load ptr, ptr %41, align 8, !tbaa !56
  store ptr %42, ptr %9, align 8, !tbaa !56
  br label %58

43:                                               ; preds = %32
  %44 = load i32, ptr %6, align 4, !tbaa !29
  %45 = load i32, ptr @globalUtilOptind, align 4, !tbaa !29
  %46 = icmp eq i32 %44, %45
  br i1 %46, label %47, label %55

47:                                               ; preds = %43
  %48 = load ptr, ptr %8, align 8, !tbaa !118
  %49 = icmp ne ptr %48, null
  br i1 %49, label %50, label %55

50:                                               ; preds = %47
  %51 = load ptr, ptr %8, align 8, !tbaa !118
  %52 = getelementptr inbounds nuw %struct.Scl_Con_t_, ptr %51, i32 0, i32 0
  %53 = load ptr, ptr %52, align 8, !tbaa !121
  %54 = call ptr @Extra_FileNameGenericAppend(ptr noundef %53, ptr noundef @.str.187)
  store ptr %54, ptr %9, align 8, !tbaa !56
  br label %57

55:                                               ; preds = %47, %43
  %56 = call i32 (ptr, ...) @printf(ptr noundef @.str.188)
  store i32 0, ptr %4, align 4
  store i32 1, ptr %12, align 4
  br label %93

57:                                               ; preds = %50
  br label %58

58:                                               ; preds = %57, %37
  %59 = load ptr, ptr %9, align 8, !tbaa !56
  %60 = call ptr @Extra_FileNameExtension(ptr noundef %59)
  %61 = call i32 @strcmp(ptr noundef %60, ptr noundef @.str.189) #14
  %62 = icmp ne i32 %61, 0
  br i1 %62, label %66, label %63

63:                                               ; preds = %58
  %64 = load ptr, ptr %8, align 8, !tbaa !118
  %65 = load ptr, ptr %9, align 8, !tbaa !56
  call void @Scl_ConWrite(ptr noundef %64, ptr noundef %65)
  br label %68

66:                                               ; preds = %58
  %67 = call i32 (ptr, ...) @printf(ptr noundef @.str.190)
  store i32 0, ptr %4, align 4
  store i32 1, ptr %12, align 4
  br label %93

68:                                               ; preds = %63
  store i32 0, ptr %4, align 4
  store i32 1, ptr %12, align 4
  br label %93

69:                                               ; preds = %26, %25
  %70 = load ptr, ptr %5, align 8, !tbaa !3
  %71 = getelementptr inbounds nuw %struct.Abc_Frame_t_, ptr %70, i32 0, i32 21
  %72 = load ptr, ptr %71, align 8, !tbaa !59
  %73 = call i32 (ptr, ptr, ...) @fprintf(ptr noundef %72, ptr noundef @.str.191) #12
  %74 = load ptr, ptr %5, align 8, !tbaa !3
  %75 = getelementptr inbounds nuw %struct.Abc_Frame_t_, ptr %74, i32 0, i32 21
  %76 = load ptr, ptr %75, align 8, !tbaa !59
  %77 = call i32 (ptr, ptr, ...) @fprintf(ptr noundef %76, ptr noundef @.str.192) #12
  %78 = load ptr, ptr %5, align 8, !tbaa !3
  %79 = getelementptr inbounds nuw %struct.Abc_Frame_t_, ptr %78, i32 0, i32 21
  %80 = load ptr, ptr %79, align 8, !tbaa !59
  %81 = load i32, ptr %11, align 4, !tbaa !29
  %82 = icmp ne i32 %81, 0
  %83 = select i1 %82, ptr @.str.39, ptr @.str.40
  %84 = call i32 (ptr, ptr, ...) @fprintf(ptr noundef %80, ptr noundef @.str.166, ptr noundef %83) #12
  %85 = load ptr, ptr %5, align 8, !tbaa !3
  %86 = getelementptr inbounds nuw %struct.Abc_Frame_t_, ptr %85, i32 0, i32 21
  %87 = load ptr, ptr %86, align 8, !tbaa !59
  %88 = call i32 (ptr, ptr, ...) @fprintf(ptr noundef %87, ptr noundef @.str.79) #12
  %89 = load ptr, ptr %5, align 8, !tbaa !3
  %90 = getelementptr inbounds nuw %struct.Abc_Frame_t_, ptr %89, i32 0, i32 21
  %91 = load ptr, ptr %90, align 8, !tbaa !59
  %92 = call i32 (ptr, ptr, ...) @fprintf(ptr noundef %91, ptr noundef @.str.80) #12
  store i32 1, ptr %4, align 4
  store i32 1, ptr %12, align 4
  br label %93

93:                                               ; preds = %69, %68, %66, %55, %31
  call void @llvm.lifetime.end.p0(i64 4, ptr %11) #12
  call void @llvm.lifetime.end.p0(i64 4, ptr %10) #12
  call void @llvm.lifetime.end.p0(i64 8, ptr %9) #12
  call void @llvm.lifetime.end.p0(i64 8, ptr %8) #12
  %94 = load i32, ptr %4, align 4
  ret i32 %94
}