; Function Attrs: nounwind uwtable
define internal range(i32 0, 2) i32 @Scl_CommandWriteConstr(ptr noundef readonly captures(none) %0, i32 noundef %1, ptr noundef %2) #0 {
  %4 = getelementptr i8, ptr %0, i64 248
  %.val = load ptr, ptr %4, align 8, !tbaa !3
  tail call void (...) @Extra_UtilGetoptReset() #12
  br label %5

5:                                                ; preds = %7, %3
  %.0 = phi i32 [ 0, %3 ], [ %8, %7 ]
  %6 = tail call i32 @Extra_UtilGetopt(i32 noundef %1, ptr noundef %2, ptr noundef nonnull @.str.102) #12
  switch i32 %6, label %31 [
    i32 -1, label %9
    i32 118, label %7
  ]

7:                                                ; preds = %5
  %8 = xor i32 %.0, 1
  br label %5, !llvm.loop !120

9:                                                ; preds = %5
  %10 = icmp eq ptr %.val, null
  br i1 %10, label %11, label %12

11:                                               ; preds = %9
  tail call void (i32, ptr, ...) @Abc_Print(i32 noundef 1, ptr noundef nonnull @.str.186)
  br label %44

12:                                               ; preds = %9
  %13 = load i32, ptr @globalUtilOptind, align 4, !tbaa !81
  %14 = add nsw i32 %13, 1
  %15 = icmp eq i32 %1, %14
  br i1 %15, label %16, label %20

16:                                               ; preds = %12
  %17 = sext i32 %13 to i64
  %18 = getelementptr inbounds ptr, ptr %2, i64 %17
  %19 = load ptr, ptr %18, align 8, !tbaa !82
  br label %26

20:                                               ; preds = %12
  %21 = icmp eq i32 %1, %13
  br i1 %21, label %22, label %25

22:                                               ; preds = %20
  %23 = load ptr, ptr %.val, align 8, !tbaa !121
  %24 = tail call ptr @Extra_FileNameGenericAppend(ptr noundef %23, ptr noundef nonnull @.str.187) #12
  br label %26

25:                                               ; preds = %20
  %puts = tail call i32 @puts(ptr nonnull dereferenceable(1) @str)
  br label %44

26:                                               ; preds = %22, %16
  %.022 = phi ptr [ %19, %16 ], [ %24, %22 ]
  %27 = tail call ptr @Extra_FileNameExtension(ptr noundef %.022) #12
  %28 = tail call i32 @strcmp(ptr noundef nonnull dereferenceable(1) %27, ptr noundef nonnull dereferenceable(7) @.str.189) #14
  %.not26 = icmp eq i32 %28, 0
  br i1 %.not26, label %29, label %30

29:                                               ; preds = %26
  tail call fastcc void @Scl_ConWrite(ptr noundef %.val, ptr noundef %.022)
  br label %44

30:                                               ; preds = %26
  %puts27 = tail call i32 @puts(ptr nonnull dereferenceable(1) @str.1)
  br label %44

31:                                               ; preds = %5
  %32 = getelementptr inbounds nuw i8, ptr %0, i64 136
  %33 = load ptr, ptr %32, align 8, !tbaa !84
  %34 = tail call i64 @fwrite(ptr nonnull @.str.191, i64 33, i64 1, ptr %33)
  %35 = load ptr, ptr %32, align 8, !tbaa !84
  %36 = tail call i64 @fwrite(ptr nonnull @.str.192, i64 56, i64 1, ptr %35)
  %37 = load ptr, ptr %32, align 8, !tbaa !84
  %.not28 = icmp eq i32 %.0, 0
  %38 = select i1 %.not28, ptr @.str.40, ptr @.str.39
  %39 = tail call i32 (ptr, ptr, ...) @fprintf(ptr noundef %37, ptr noundef nonnull @.str.166, ptr noundef nonnull %38) #12
  %40 = load ptr, ptr %32, align 8, !tbaa !84
  %41 = tail call i64 @fwrite(ptr nonnull @.str.79, i64 37, i64 1, ptr %40)
  %42 = load ptr, ptr %32, align 8, !tbaa !84
  %43 = tail call i64 @fwrite(ptr nonnull @.str.80, i64 37, i64 1, ptr %42)
  br label %44

44:                                               ; preds = %31, %29, %30, %25, %11
  %.021 = phi i32 [ 1, %31 ], [ 0, %11 ], [ 0, %30 ], [ 0, %29 ], [ 0, %25 ]
  ret i32 %.021
}